
BinaryClock.elf:     file format elf32-avr

Sections:
Idx Name          Size      VMA       LMA       File off  Algn
  0 .data         00000000  00800100  00800100  000002fc  2**0
                  ALLOC, LOAD, DATA
  1 .text         0000008a  00000000  00000000  00000094  2**1
                  CONTENTS, ALLOC, LOAD, READONLY, CODE
  2 .comment      0000002f  00000000  00000000  000002fc  2**0
                  CONTENTS, READONLY
  3 .stack.descriptors.hdr 0000001c  00000000  00000000  0000032b  2**0
                  CONTENTS, READONLY
  4 .debug_info   000005f4  00000000  00000000  00000347  2**0
                  CONTENTS, READONLY, DEBUGGING
  5 .debug_abbrev 000005a2  00000000  00000000  0000093b  2**0
                  CONTENTS, READONLY, DEBUGGING
  6 .debug_line   00000137  00000000  00000000  00000edd  2**0
                  CONTENTS, READONLY, DEBUGGING
  7 .debug_str    00000209  00000000  00000000  00001014  2**0
                  CONTENTS, READONLY, DEBUGGING
  8 .text         00000002  0000008a  0000008a  0000011e  2**1
                  CONTENTS, ALLOC, LOAD, READONLY, CODE
  9 .note.gnu.avr.deviceinfo 0000003c  00000000  00000000  00001220  2**2
                  CONTENTS, READONLY, DEBUGGING
 10 .text.startup.main 00000142  0000008c  0000008c  00000120  2**1
                  CONTENTS, ALLOC, LOAD, READONLY, CODE
 11 .text.__vector_1 00000052  000001ce  000001ce  00000262  2**1
                  CONTENTS, ALLOC, LOAD, READONLY, CODE
 12 .progmemx.data.hourLedPins 0000000f  00000220  00000220  000002b4  2**0
                  CONTENTS, ALLOC, LOAD, READONLY, PROGMEMX
 13 .progmemx.data.minLedPins 00000012  0000022f  0000022f  000002c3  2**0
                  CONTENTS, ALLOC, LOAD, READONLY, PROGMEMX
 14 .bss.minute   00000001  00800100  00800100  000002fc  2**0
                  ALLOC
 15 .bss.hour     00000001  00800101  00800101  000002fc  2**0
                  ALLOC
 16 .text.libgcc  00000011  00000241  00000241  000002d5  2**1
                  CONTENTS, ALLOC, LOAD, READONLY, CODE
 17 .text.__dummy_fini 00000002  00000252  00000252  000002e6  2**1
                  CONTENTS, ALLOC, LOAD, READONLY, CODE
 18 .text.__dummy_funcs_on_exit 00000002  00000254  00000254  000002e8  2**1
                  CONTENTS, ALLOC, LOAD, READONLY, CODE
 19 .text.__dummy_simulator_exit 00000002  00000256  00000256  000002ea  2**1
                  CONTENTS, ALLOC, LOAD, READONLY, CODE
 20 .text.exit    0000000e  00000258  00000258  000002ec  2**1
                  CONTENTS, ALLOC, LOAD, READONLY, CODE
 21 .text._Exit   00000002  00000266  00000266  000002fa  2**1
                  CONTENTS, ALLOC, LOAD, READONLY, CODE

Disassembly of section .text:

00000000 <__vectors>:
   0:	1c c0       	rjmp	.+56     	; 0x3a <__ctors_end>
   2:	e5 c0       	rjmp	.+458    	; 0x1ce <__vector_1>
   4:	42 c0       	rjmp	.+132    	; 0x8a <_etext>
   6:	41 c0       	rjmp	.+130    	; 0x8a <_etext>
   8:	40 c0       	rjmp	.+128    	; 0x8a <_etext>
   a:	3f c0       	rjmp	.+126    	; 0x8a <_etext>
   c:	3e c0       	rjmp	.+124    	; 0x8a <_etext>
   e:	3d c0       	rjmp	.+122    	; 0x8a <_etext>
  10:	3c c0       	rjmp	.+120    	; 0x8a <_etext>
  12:	3b c0       	rjmp	.+118    	; 0x8a <_etext>
  14:	3a c0       	rjmp	.+116    	; 0x8a <_etext>
  16:	39 c0       	rjmp	.+114    	; 0x8a <_etext>
  18:	38 c0       	rjmp	.+112    	; 0x8a <_etext>
  1a:	37 c0       	rjmp	.+110    	; 0x8a <_etext>
  1c:	36 c0       	rjmp	.+108    	; 0x8a <_etext>
  1e:	35 c0       	rjmp	.+106    	; 0x8a <_etext>
  20:	34 c0       	rjmp	.+104    	; 0x8a <_etext>
  22:	33 c0       	rjmp	.+102    	; 0x8a <_etext>
  24:	32 c0       	rjmp	.+100    	; 0x8a <_etext>
  26:	31 c0       	rjmp	.+98     	; 0x8a <_etext>
  28:	30 c0       	rjmp	.+96     	; 0x8a <_etext>
  2a:	2f c0       	rjmp	.+94     	; 0x8a <_etext>
  2c:	2e c0       	rjmp	.+92     	; 0x8a <_etext>
  2e:	2d c0       	rjmp	.+90     	; 0x8a <_etext>
  30:	2c c0       	rjmp	.+88     	; 0x8a <_etext>
  32:	2b c0       	rjmp	.+86     	; 0x8a <_etext>

00000034 <.dinit>:
  34:	01 00       	.word	0x0001	; ????
  36:	01 02       	muls	r16, r17
  38:	80 00       	.word	0x0080	; ????

0000003a <__ctors_end>:
  3a:	11 24       	eor	r1, r1
  3c:	1f be       	out	0x3f, r1	; 63
  3e:	cf ef       	ldi	r28, 0xFF	; 255
  40:	d2 e0       	ldi	r29, 0x02	; 2
  42:	de bf       	out	0x3e, r29	; 62
  44:	cd bf       	out	0x3d, r28	; 61

00000046 <__do_copy_data>:
  46:	e4 e3       	ldi	r30, 0x34	; 52
  48:	f0 e0       	ldi	r31, 0x00	; 0
  4a:	40 e0       	ldi	r20, 0x00	; 0
  4c:	17 c0       	rjmp	.+46     	; 0x7c <__do_clear_bss+0x8>
  4e:	b5 91       	lpm	r27, Z+
  50:	a5 91       	lpm	r26, Z+
  52:	35 91       	lpm	r19, Z+
  54:	25 91       	lpm	r18, Z+
  56:	05 91       	lpm	r16, Z+
  58:	07 fd       	sbrc	r16, 7
  5a:	0c c0       	rjmp	.+24     	; 0x74 <__do_clear_bss>
  5c:	95 91       	lpm	r25, Z+
  5e:	85 91       	lpm	r24, Z+
  60:	ef 01       	movw	r28, r30
  62:	f9 2f       	mov	r31, r25
  64:	e8 2f       	mov	r30, r24
  66:	05 90       	lpm	r0, Z+
  68:	0d 92       	st	X+, r0
  6a:	a2 17       	cp	r26, r18
  6c:	b3 07       	cpc	r27, r19
  6e:	d9 f7       	brne	.-10     	; 0x66 <__do_copy_data+0x20>
  70:	fe 01       	movw	r30, r28
  72:	04 c0       	rjmp	.+8      	; 0x7c <__do_clear_bss+0x8>

00000074 <__do_clear_bss>:
  74:	1d 92       	st	X+, r1
  76:	a2 17       	cp	r26, r18
  78:	b3 07       	cpc	r27, r19
  7a:	e1 f7       	brne	.-8      	; 0x74 <__do_clear_bss>
  7c:	e9 33       	cpi	r30, 0x39	; 57
  7e:	f4 07       	cpc	r31, r20
  80:	31 f7       	brne	.-52     	; 0x4e <__do_copy_data+0x8>
  82:	04 d0       	rcall	.+8      	; 0x8c <main>
  84:	e9 c0       	rjmp	.+466    	; 0x258 <exit>

00000086 <_exit>:
  86:	f8 94       	cli

00000088 <__stop_program>:
  88:	ff cf       	rjmp	.-2      	; 0x88 <__stop_program>

Disassembly of section .text:

0000008a <__bad_interrupt>:
  8a:	ba cf       	rjmp	.-140    	; 0x0 <__TEXT_REGION_ORIGIN__>

Disassembly of section .text.startup.main:

0000008c <main>:
  8c:	8f e3       	ldi	r24, 0x3F	; 63
  8e:	87 b9       	out	0x07, r24	; 7
  90:	80 ec       	ldi	r24, 0xC0	; 192
  92:	8a b9       	out	0x0a, r24	; 10
  94:	87 e0       	ldi	r24, 0x07	; 7
  96:	84 b9       	out	0x04, r24	; 4
  98:	8b b1       	in	r24, 0x0b	; 11
  9a:	87 60       	ori	r24, 0x07	; 7
  9c:	8b b9       	out	0x0b, r24	; 11
  9e:	80 91 69 00 	lds	r24, 0x0069	; 0x800069 <__TEXT_REGION_LENGTH__+0x7ff069>
  a2:	83 60       	ori	r24, 0x03	; 3
  a4:	80 93 69 00 	sts	0x0069, r24	; 0x800069 <__TEXT_REGION_LENGTH__+0x7ff069>
  a8:	e8 9a       	sbi	0x1d, 0	; 29
  aa:	78 94       	sei
  ac:	a1 e0       	ldi	r26, 0x01	; 1
  ae:	b0 e0       	ldi	r27, 0x00	; 0
  b0:	83 e9       	ldi	r24, 0x93	; 147
  b2:	91 e1       	ldi	r25, 0x11	; 17
  b4:	01 97       	sbiw	r24, 0x01	; 1
  b6:	f1 f7       	brne	.-4      	; 0xb4 <main+0x28>
  b8:	00 c0       	rjmp	.+0      	; 0xba <main+0x2e>
  ba:	00 00       	nop
  bc:	18 b8       	out	0x08, r1	; 8
  be:	8b b1       	in	r24, 0x0b	; 11
  c0:	87 70       	andi	r24, 0x07	; 7
  c2:	8b b9       	out	0x0b, r24	; 11
  c4:	15 b8       	out	0x05, r1	; 5
  c6:	9e e1       	ldi	r25, 0x1E	; 30
  c8:	9a 95       	dec	r25
  ca:	f1 f7       	brne	.-4      	; 0xc8 <main+0x3c>
  cc:	2f e2       	ldi	r18, 0x2F	; 47
  ce:	32 e0       	ldi	r19, 0x02	; 2
  d0:	40 e0       	ldi	r20, 0x00	; 0
  d2:	52 e0       	ldi	r21, 0x02	; 2
  d4:	65 e2       	ldi	r22, 0x25	; 37
  d6:	70 e0       	ldi	r23, 0x00	; 0
  d8:	c0 e0       	ldi	r28, 0x00	; 0
  da:	d0 e0       	ldi	r29, 0x00	; 0
  dc:	1c c0       	rjmp	.+56     	; 0x116 <__EEPROM_REGION_LENGTH__+0x16>
  de:	e0 80       	ld	r14, Z
  e0:	cd 01       	movw	r24, r26
  e2:	01 c0       	rjmp	.+2      	; 0xe6 <main+0x5a>
  e4:	88 0f       	add	r24, r24
  e6:	5a 95       	dec	r21
  e8:	ea f7       	brpl	.-6      	; 0xe4 <main+0x58>
  ea:	8e 29       	or	r24, r14
  ec:	80 83       	st	Z, r24
  ee:	21 96       	adiw	r28, 0x01	; 1
  f0:	2d 5f       	subi	r18, 0xFD	; 253
  f2:	3f 4f       	sbci	r19, 0xFF	; 255
  f4:	4f 4f       	sbci	r20, 0xFF	; 255
  f6:	c6 30       	cpi	r28, 0x06	; 6
  f8:	d1 05       	cpc	r29, r1
  fa:	59 f1       	breq	.+86     	; 0x152 <__EEPROM_REGION_LENGTH__+0x52>
  fc:	f9 01       	movw	r30, r18
  fe:	54 2f       	mov	r21, r20
 100:	a0 d0       	rcall	.+320    	; 0x242 <__xload_2>
 102:	69 01       	movw	r12, r18
 104:	e4 2e       	mov	r14, r20
 106:	f2 e0       	ldi	r31, 0x02	; 2
 108:	cf 0e       	add	r12, r31
 10a:	d1 1c       	adc	r13, r1
 10c:	e1 1c       	adc	r14, r1
 10e:	f6 01       	movw	r30, r12
 110:	54 91       	lpm	r21, Z
 112:	e7 fc       	sbrc	r14, 7
 114:	50 81       	ld	r21, Z
 116:	80 91 00 01 	lds	r24, 0x0100	; 0x800100 <__DATA_REGION_ORIGIN__>
 11a:	90 e0       	ldi	r25, 0x00	; 0
 11c:	0c 2e       	mov	r0, r28
 11e:	02 c0       	rjmp	.+4      	; 0x124 <__EEPROM_REGION_LENGTH__+0x24>
 120:	95 95       	asr	r25
 122:	87 95       	ror	r24
 124:	0a 94       	dec	r0
 126:	e2 f7       	brpl	.-8      	; 0x120 <__EEPROM_REGION_LENGTH__+0x20>
 128:	fb 01       	movw	r30, r22
 12a:	80 fd       	sbrc	r24, 0
 12c:	d8 cf       	rjmp	.-80     	; 0xde <main+0x52>
 12e:	90 81       	ld	r25, Z
 130:	fd 01       	movw	r30, r26
 132:	01 c0       	rjmp	.+2      	; 0x136 <__EEPROM_REGION_LENGTH__+0x36>
 134:	ee 0f       	add	r30, r30
 136:	5a 95       	dec	r21
 138:	ea f7       	brpl	.-6      	; 0x134 <__EEPROM_REGION_LENGTH__+0x34>
 13a:	8e 2f       	mov	r24, r30
 13c:	80 95       	com	r24
 13e:	89 23       	and	r24, r25
 140:	fb 01       	movw	r30, r22
 142:	80 83       	st	Z, r24
 144:	21 96       	adiw	r28, 0x01	; 1
 146:	2d 5f       	subi	r18, 0xFD	; 253
 148:	3f 4f       	sbci	r19, 0xFF	; 255
 14a:	4f 4f       	sbci	r20, 0xFF	; 255
 14c:	c6 30       	cpi	r28, 0x06	; 6
 14e:	d1 05       	cpc	r29, r1
 150:	a9 f6       	brne	.-86     	; 0xfc <main+0x70>
 152:	20 e2       	ldi	r18, 0x20	; 32
 154:	32 e0       	ldi	r19, 0x02	; 2
 156:	40 e0       	ldi	r20, 0x00	; 0
 158:	50 e0       	ldi	r21, 0x00	; 0
 15a:	65 e2       	ldi	r22, 0x25	; 37
 15c:	70 e0       	ldi	r23, 0x00	; 0
 15e:	c0 e0       	ldi	r28, 0x00	; 0
 160:	d0 e0       	ldi	r29, 0x00	; 0
 162:	80 91 01 01 	lds	r24, 0x0101	; 0x800101 <hour>
 166:	90 e0       	ldi	r25, 0x00	; 0
 168:	0c 2e       	mov	r0, r28
 16a:	02 c0       	rjmp	.+4      	; 0x170 <__EEPROM_REGION_LENGTH__+0x70>
 16c:	95 95       	asr	r25
 16e:	87 95       	ror	r24
 170:	0a 94       	dec	r0
 172:	e2 f7       	brpl	.-8      	; 0x16c <__EEPROM_REGION_LENGTH__+0x6c>
 174:	fb 01       	movw	r30, r22
 176:	80 ff       	sbrs	r24, 0
 178:	1e c0       	rjmp	.+60     	; 0x1b6 <__EEPROM_REGION_LENGTH__+0xb6>
 17a:	e0 80       	ld	r14, Z
 17c:	cd 01       	movw	r24, r26
 17e:	01 c0       	rjmp	.+2      	; 0x182 <__EEPROM_REGION_LENGTH__+0x82>
 180:	88 0f       	add	r24, r24
 182:	5a 95       	dec	r21
 184:	ea f7       	brpl	.-6      	; 0x180 <__EEPROM_REGION_LENGTH__+0x80>
 186:	8e 29       	or	r24, r14
 188:	80 83       	st	Z, r24
 18a:	21 96       	adiw	r28, 0x01	; 1
 18c:	2d 5f       	subi	r18, 0xFD	; 253
 18e:	3f 4f       	sbci	r19, 0xFF	; 255
 190:	4f 4f       	sbci	r20, 0xFF	; 255
 192:	c5 30       	cpi	r28, 0x05	; 5
 194:	d1 05       	cpc	r29, r1
 196:	09 f4       	brne	.+2      	; 0x19a <__EEPROM_REGION_LENGTH__+0x9a>
 198:	8b cf       	rjmp	.-234    	; 0xb0 <main+0x24>
 19a:	f9 01       	movw	r30, r18
 19c:	54 2f       	mov	r21, r20
 19e:	51 d0       	rcall	.+162    	; 0x242 <__xload_2>
 1a0:	69 01       	movw	r12, r18
 1a2:	e4 2e       	mov	r14, r20
 1a4:	f2 e0       	ldi	r31, 0x02	; 2
 1a6:	cf 0e       	add	r12, r31
 1a8:	d1 1c       	adc	r13, r1
 1aa:	e1 1c       	adc	r14, r1
 1ac:	f6 01       	movw	r30, r12
 1ae:	54 91       	lpm	r21, Z
 1b0:	e7 fc       	sbrc	r14, 7
 1b2:	50 81       	ld	r21, Z
 1b4:	d6 cf       	rjmp	.-84     	; 0x162 <__EEPROM_REGION_LENGTH__+0x62>
 1b6:	90 81       	ld	r25, Z
 1b8:	fd 01       	movw	r30, r26
 1ba:	01 c0       	rjmp	.+2      	; 0x1be <__EEPROM_REGION_LENGTH__+0xbe>
 1bc:	ee 0f       	add	r30, r30
 1be:	5a 95       	dec	r21
 1c0:	ea f7       	brpl	.-6      	; 0x1bc <__EEPROM_REGION_LENGTH__+0xbc>
 1c2:	8e 2f       	mov	r24, r30
 1c4:	80 95       	com	r24
 1c6:	89 23       	and	r24, r25
 1c8:	fb 01       	movw	r30, r22
 1ca:	80 83       	st	Z, r24
 1cc:	de cf       	rjmp	.-68     	; 0x18a <__EEPROM_REGION_LENGTH__+0x8a>

Disassembly of section .text.__vector_1:

000001ce <__vector_1>:
 1ce:	1f 92       	push	r1
 1d0:	1f b6       	in	r1, 0x3f	; 63
 1d2:	1f 92       	push	r1
 1d4:	11 24       	eor	r1, r1
 1d6:	8f 93       	push	r24
 1d8:	86 e0       	ldi	r24, 0x06	; 6
 1da:	8a 95       	dec	r24
 1dc:	f1 f7       	brne	.-4      	; 0x1da <__vector_1+0xc>
 1de:	00 c0       	rjmp	.+0      	; 0x1e0 <__vector_1+0x12>
 1e0:	80 91 00 01 	lds	r24, 0x0100	; 0x800100 <__DATA_REGION_ORIGIN__>
 1e4:	8f 5f       	subi	r24, 0xFF	; 255
 1e6:	80 93 00 01 	sts	0x0100, r24	; 0x800100 <__DATA_REGION_ORIGIN__>
 1ea:	80 91 00 01 	lds	r24, 0x0100	; 0x800100 <__DATA_REGION_ORIGIN__>
 1ee:	85 30       	cpi	r24, 0x05	; 5
 1f0:	29 f0       	breq	.+10     	; 0x1fc <__vector_1+0x2e>
 1f2:	8f 91       	pop	r24
 1f4:	1f 90       	pop	r1
 1f6:	1f be       	out	0x3f, r1	; 63
 1f8:	1f 90       	pop	r1
 1fa:	18 95       	reti
 1fc:	10 92 00 01 	sts	0x0100, r1	; 0x800100 <__DATA_REGION_ORIGIN__>
 200:	80 91 01 01 	lds	r24, 0x0101	; 0x800101 <hour>
 204:	8f 5f       	subi	r24, 0xFF	; 255
 206:	80 93 01 01 	sts	0x0101, r24	; 0x800101 <hour>
 20a:	80 91 01 01 	lds	r24, 0x0101	; 0x800101 <hour>
 20e:	8a 30       	cpi	r24, 0x0A	; 10
 210:	81 f7       	brne	.-32     	; 0x1f2 <__vector_1+0x24>
 212:	10 92 01 01 	sts	0x0101, r1	; 0x800101 <hour>
 216:	8f 91       	pop	r24
 218:	1f 90       	pop	r1
 21a:	1f be       	out	0x3f, r1	; 63
 21c:	1f 90       	pop	r1
 21e:	18 95       	reti

Disassembly of section .text.libgcc:

00000241 <__xload_2-0x1>:
	...

00000242 <__xload_2>:
 242:	57 fd       	sbrc	r21, 7
 244:	03 c0       	rjmp	.+6      	; 0x24c <__xload_2+0xa>
 246:	65 91       	lpm	r22, Z+
 248:	75 91       	lpm	r23, Z+
 24a:	08 95       	ret
 24c:	61 91       	ld	r22, Z+
 24e:	71 91       	ld	r23, Z+
 250:	08 95       	ret

Disassembly of section .text.__dummy_fini:

00000252 <_fini>:
 252:	08 95       	ret

Disassembly of section .text.__dummy_funcs_on_exit:

00000254 <__funcs_on_exit>:
 254:	08 95       	ret

Disassembly of section .text.__dummy_simulator_exit:

00000256 <__simulator_exit>:
 256:	08 95       	ret

Disassembly of section .text.exit:

00000258 <exit>:
 258:	ec 01       	movw	r28, r24
 25a:	fc df       	rcall	.-8      	; 0x254 <__funcs_on_exit>
 25c:	fa df       	rcall	.-12     	; 0x252 <_fini>
 25e:	ce 01       	movw	r24, r28
 260:	fa df       	rcall	.-12     	; 0x256 <__simulator_exit>
 262:	ce 01       	movw	r24, r28
 264:	00 d0       	rcall	.+0      	; 0x266 <_Exit>

Disassembly of section .text._Exit:

00000266 <_Exit>:
 266:	0f df       	rcall	.-482    	; 0x86 <_exit>
